target datalayout = "e-m:e-p270:32:32-p271:32:32-p272:64:64-i64:64-i128:128-f80:128-n8:16:32:64-S128"
target triple = "x86_64-pc-linux-gnu"

%struct._e_guid_t = type { i32, i16, i16, [8 x i8] }

; Function Attrs: null_pointer_is_valid sspstrong uwtable
define i32 @dissect_dcerpc_uuid_t(ptr noundef %0, i32 noundef %1, ptr noundef %2, ptr noundef %3, ptr noundef %4, i32 noundef %5, ptr noundef %6) #0 {
  %8 = alloca ptr, align 8
  %9 = alloca i32, align 4
  %10 = alloca ptr, align 8
  %11 = alloca ptr, align 8
  %12 = alloca ptr, align 8
  %13 = alloca i32, align 4
  %14 = alloca ptr, align 8
  %15 = alloca %struct._e_guid_t, align 4
  store ptr %0, ptr %8, align 8
  store i32 %1, ptr %9, align 4
  store ptr %2, ptr %10, align 8
  store ptr %3, ptr %11, align 8
  store ptr %4, ptr %12, align 8
  store i32 %5, ptr %13, align 4
  store ptr %6, ptr %14, align 8
  call void @llvm.lifetime.start.p0(i64 16, ptr %15) #19
  %16 = load ptr, ptr %12, align 8
  %17 = getelementptr i8, ptr %16, i64 0
  %18 = load i8, ptr %17, align 1
  %19 = zext i8 %18 to i32
  %20 = and i32 %19, 16
  %21 = icmp ne i32 %20, 0
  br i1 %21, label %22, label %25

22:                                               ; preds = %7
  %23 = load ptr, ptr %8, align 8
  %24 = load i32, ptr %9, align 4
  call void @tvb_get_letohguid(ptr noundef %23, i32 noundef %24, ptr noundef %15)
  br label %28

25:                                               ; preds = %7
  %26 = load ptr, ptr %8, align 8
  %27 = load i32, ptr %9, align 4
  call void @tvb_get_ntohguid(ptr noundef %26, i32 noundef %27, ptr noundef %15)
  br label %28

28:                                               ; preds = %25, %22
  %29 = load ptr, ptr %11, align 8
  %30 = icmp ne ptr %29, null
  br i1 %30, label %31, label %40

31:                                               ; preds = %28
  %32 = load i32, ptr %13, align 4
  %33 = icmp ne i32 %32, -1
  br i1 %33, label %34, label %40

34:                                               ; preds = %31
  %35 = load ptr, ptr %11, align 8
  %36 = load i32, ptr %13, align 4
  %37 = load ptr, ptr %8, align 8
  %38 = load i32, ptr %9, align 4
  %39 = call ptr @proto_tree_add_guid(ptr noundef %35, i32 noundef %36, ptr noundef %37, i32 noundef %38, i32 noundef 16, ptr noundef %15)
  br label %40

40:                                               ; preds = %34, %31, %28
  %41 = load ptr, ptr %14, align 8
  %42 = icmp ne ptr %41, null
  br i1 %42, label %43, label %45

43:                                               ; preds = %40
  %44 = load ptr, ptr %14, align 8
  call void @llvm.memcpy.p0.p0.i64(ptr align 4 %44, ptr align 4 %15, i64 16, i1 false)
  br label %45

45:                                               ; preds = %43, %40
  %46 = load i32, ptr %9, align 4
  %47 = add i32 %46, 16
  call void @llvm.lifetime.end.p0(i64 16, ptr %15) #19
  ret i32 %47
}