; Function Attrs: null_pointer_is_valid sspstrong uwtable
define noundef i32 @dissect_dcerpc_uuid_t(ptr noundef %0, i32 noundef %1, ptr noundef readnone captures(none) %2, ptr noundef %3, ptr noundef readonly captures(none) %4, i32 noundef %5, ptr noundef writeonly captures(address_is_null) %6) local_unnamed_addr #0 {
  %8 = alloca %struct._e_guid_t, align 4
  call void @llvm.lifetime.start.p0(i64 16, ptr nonnull %8) #19
  %9 = load i8, ptr %4, align 1
  %10 = and i8 %9, 16
  %.not = icmp eq i8 %10, 0
  br i1 %.not, label %12, label %11

11:                                               ; preds = %7
  call void @tvb_get_letohguid(ptr noundef %0, i32 noundef %1, ptr noundef nonnull %8)
  br label %13

12:                                               ; preds = %7
  call void @tvb_get_ntohguid(ptr noundef %0, i32 noundef %1, ptr noundef nonnull %8)
  br label %13

13:                                               ; preds = %12, %11
  %14 = icmp ne ptr %3, null
  %15 = icmp ne i32 %5, -1
  %or.cond = and i1 %14, %15
  br i1 %or.cond, label %16, label %18

16:                                               ; preds = %13
  %17 = call ptr @proto_tree_add_guid(ptr noundef nonnull %3, i32 noundef %5, ptr noundef %0, i32 noundef %1, i32 noundef 16, ptr noundef nonnull %8)
  br label %18

18:                                               ; preds = %16, %13
  %.not16 = icmp eq ptr %6, null
  br i1 %.not16, label %20, label %19

19:                                               ; preds = %18
  call void @llvm.memcpy.p0.p0.i64(ptr noundef nonnull align 4 dereferenceable(16) %6, ptr noundef nonnull align 4 dereferenceable(16) %8, i64 16, i1 false)
  br label %20

20:                                               ; preds = %19, %18
  %21 = add i32 %1, 16
  call void @llvm.lifetime.end.p0(i64 16, ptr nonnull %8) #19
  ret i32 %21
}